target datalayout = "e-m:e-p270:32:32-p271:32:32-p272:64:64-i64:64-i128:128-f80:128-n8:16:32:64-S128"
target triple = "x86_64-unknown-linux-gnu"

@.str.3 = private unnamed_addr constant [6 x i8] c"Names\00", align 1
@.str.4 = private unnamed_addr constant [11 x i8] c"zoneinfo64\00", align 1

; Function Attrs: mustprogress nounwind uwtable
define internal noundef signext i8 @_ZL9U_FAILURE10UErrorCode(i32 noundef %code) #2 {
entry:
  %code.addr = alloca i32, align 4
  store i32 %code, ptr %code.addr, align 4
  %0 = load i32, ptr %code.addr, align 4
  %cmp = icmp sgt i32 %0, 0
  %conv = zext i1 %cmp to i8
  ret i8 %conv
}

; Function Attrs: mustprogress uwtable
define noundef ptr @_ZN6icu_758TimeZone6findIDERKNS_13UnicodeStringE(ptr noundef nonnull align 8 dereferenceable(64) %id) #0 align 2 {
entry:
  %id.addr = alloca ptr, align 8
  %result = alloca ptr, align 8
  %ec = alloca i32, align 4
  %rb = alloca ptr, align 8
  %names = alloca ptr, align 8
  %idx = alloca i32, align 4
  store ptr %id, ptr %id.addr, align 8
  store ptr null, ptr %result, align 8
  store i32 0, ptr %ec, align 4
  %call = call ptr @ures_openDirect_75(ptr noundef null, ptr noundef @.str.4, ptr noundef %ec)
  store ptr %call, ptr %rb, align 8
  %0 = load ptr, ptr %rb, align 8
  %call1 = call ptr @ures_getByKey_75(ptr noundef %0, ptr noundef @.str.3, ptr noundef null, ptr noundef %ec)
  store ptr %call1, ptr %names, align 8
  %1 = load ptr, ptr %names, align 8
  %2 = load ptr, ptr %id.addr, align 8
  %call2 = call noundef i32 @_ZN6icu_75L17findInStringArrayEP15UResourceBundleRKNS_13UnicodeStringER10UErrorCode(ptr noundef %1, ptr noundef nonnull align 8 dereferenceable(64) %2, ptr noundef nonnull align 4 dereferenceable(4) %ec)
  store i32 %call2, ptr %idx, align 4
  %3 = load ptr, ptr %names, align 8
  %4 = load i32, ptr %idx, align 4
  %call3 = call ptr @ures_getStringByIndex_75(ptr noundef %3, i32 noundef %4, ptr noundef null, ptr noundef %ec)
  store ptr %call3, ptr %result, align 8
  %5 = load i32, ptr %ec, align 4
  %call4 = call noundef signext i8 @_ZL9U_FAILURE10UErrorCode(i32 noundef %5)
  %tobool = icmp ne i8 %call4, 0
  br i1 %tobool, label %if.then, label %if.end

if.then:                                          ; preds = %entry
  store ptr null, ptr %result, align 8
  br label %if.end

if.end:                                           ; preds = %if.then, %entry
  %6 = load ptr, ptr %names, align 8
  call void @ures_close_75(ptr noundef %6)
  %7 = load ptr, ptr %rb, align 8
  call void @ures_close_75(ptr noundef %7)
  %8 = load ptr, ptr %result, align 8
  ret ptr %8
}