; Function Attrs: mustprogress uwtable
define noundef ptr @_ZN6icu_758TimeZone6findIDERKNS_13UnicodeStringE(ptr noundef nonnull align 8 dereferenceable(64) %id) local_unnamed_addr #0 align 2 {
entry:
  %ec = alloca i32, align 4
  store i32 0, ptr %ec, align 4
  %call = call ptr @ures_openDirect_75(ptr noundef null, ptr noundef nonnull @.str.4, ptr noundef nonnull %ec)
  %call1 = call ptr @ures_getByKey_75(ptr noundef %call, ptr noundef nonnull @.str.3, ptr noundef null, ptr noundef nonnull %ec)
  %call2 = call fastcc noundef i32 @_ZN6icu_75L17findInStringArrayEP15UResourceBundleRKNS_13UnicodeStringER10UErrorCode(ptr noundef %call1, ptr noundef nonnull align 8 dereferenceable(64) %id, ptr noundef nonnull align 4 dereferenceable(4) %ec), !range !12
  %call3 = call ptr @ures_getStringByIndex_75(ptr noundef %call1, i32 noundef %call2, ptr noundef null, ptr noundef nonnull %ec)
  %0 = load i32, ptr %ec, align 4
  %cmp.i = icmp slt i32 %0, 1
  %spec.select = select i1 %cmp.i, ptr %call3, ptr null
  call void @ures_close_75(ptr noundef %call1)
  call void @ures_close_75(ptr noundef %call)
  ret ptr %spec.select
}